; Function Attrs: nounwind uwtable
define hidden ptr @lexbor_mem_chunk_destroy(ptr noundef readnone %0, ptr noundef %1, i1 noundef zeroext %2) local_unnamed_addr #0 {
  %4 = icmp eq ptr %1, null
  %5 = icmp eq ptr %0, null
  %or.cond = or i1 %5, %4
  br i1 %or.cond, label %13, label %6

6:                                                ; preds = %3
  %7 = load ptr, ptr %1, align 8
  %.not = icmp eq ptr %7, null
  br i1 %.not, label %10, label %8

8:                                                ; preds = %6
  %9 = tail call ptr @lexbor_free(ptr noundef nonnull %7) #6
  store ptr %9, ptr %1, align 8
  br label %10

10:                                               ; preds = %8, %6
  br i1 %2, label %11, label %13

11:                                               ; preds = %10
  %12 = tail call ptr @lexbor_free(ptr noundef nonnull %1) #6
  br label %13

13:                                               ; preds = %10, %3, %11
  %.0 = phi ptr [ %12, %11 ], [ null, %3 ], [ %1, %10 ]
  ret ptr %.0
}